target datalayout = "e-m:e-p270:32:32-p271:32:32-p272:64:64-i64:64-i128:128-f80:128-n8:16:32:64-S128"
target triple = "x86_64-pc-linux-gnu"

%struct.conf_st = type { ptr, ptr, ptr, i32, i32, ptr, ptr }

; Function Attrs: inlinehint nounwind uwtable
define internal ptr @ossl_check_OPENSSL_CSTRING_sk_type(ptr noundef %0) #3 {
  %2 = alloca ptr, align 8
  store ptr %0, ptr %2, align 8, !tbaa !43
  %3 = load ptr, ptr %2, align 8, !tbaa !43
  ret ptr %3
}

; Function Attrs: inlinehint nounwind uwtable
define internal void @lh_CONF_VALUE_doall_SECTION_NAMES(ptr noundef %0, ptr noundef %1, ptr noundef %2) #3 {
  %4 = alloca ptr, align 8
  %5 = alloca ptr, align 8
  %6 = alloca ptr, align 8
  store ptr %0, ptr %4, align 8, !tbaa !8
  store ptr %1, ptr %5, align 8, !tbaa !31
  store ptr %2, ptr %6, align 8, !tbaa !43
  %7 = load ptr, ptr %4, align 8, !tbaa !8
  %8 = load ptr, ptr %5, align 8, !tbaa !31
  %9 = load ptr, ptr %6, align 8, !tbaa !43
  call void @OPENSSL_LH_doall_arg_thunk(ptr noundef %7, ptr noundef @lh_CONF_VALUE_doall_SECTION_NAMES_thunk, ptr noundef %8, ptr noundef %9)
  ret void
}

; Function Attrs: inlinehint nounwind uwtable
define internal ptr @ossl_check_OPENSSL_CSTRING_compfunc_type(ptr noundef %0) #3 {
  %2 = alloca ptr, align 8
  store ptr %0, ptr %2, align 8, !tbaa !31
  %3 = load ptr, ptr %2, align 8, !tbaa !31
  ret ptr %3
}

; Function Attrs: nounwind uwtable
define ptr @NCONF_get_section_names(ptr noundef %0) #0 {
  %2 = alloca ptr, align 8
  %3 = alloca ptr, align 8
  %4 = alloca ptr, align 8
  %5 = alloca i32, align 4
  store ptr %0, ptr %3, align 8, !tbaa !3
  call void @llvm.lifetime.start.p0(i64 8, ptr %4) #8
  %6 = call ptr @ossl_check_OPENSSL_CSTRING_compfunc_type(ptr noundef @section_name_cmp)
  %7 = call ptr @OPENSSL_sk_new(ptr noundef %6)
  store ptr %7, ptr %4, align 8, !tbaa !43
  %8 = icmp eq ptr %7, null
  br i1 %8, label %9, label %10

9:                                                ; preds = %1
  store ptr null, ptr %2, align 8
  store i32 1, ptr %5, align 4
  br label %18

10:                                               ; preds = %1
  %11 = load ptr, ptr %3, align 8, !tbaa !3
  %12 = getelementptr inbounds nuw %struct.conf_st, ptr %11, i32 0, i32 2
  %13 = load ptr, ptr %12, align 8, !tbaa !15
  %14 = load ptr, ptr %4, align 8, !tbaa !43
  call void @lh_CONF_VALUE_doall_SECTION_NAMES(ptr noundef %13, ptr noundef @collect_section_name, ptr noundef %14)
  %15 = load ptr, ptr %4, align 8, !tbaa !43
  %16 = call ptr @ossl_check_OPENSSL_CSTRING_sk_type(ptr noundef %15)
  call void @OPENSSL_sk_sort(ptr noundef %16)
  %17 = load ptr, ptr %4, align 8, !tbaa !43
  store ptr %17, ptr %2, align 8
  store i32 1, ptr %5, align 4
  br label %18

18:                                               ; preds = %10, %9
  call void @llvm.lifetime.end.p0(i64 8, ptr %4) #8
  %19 = load ptr, ptr %2, align 8
  ret ptr %19
}