; Function Attrs: nounwind uwtable
define ptr @NCONF_get_section_names(ptr noundef readonly captures(none) %0) local_unnamed_addr #0 {
  %2 = tail call ptr @OPENSSL_sk_new(ptr noundef nonnull @section_name_cmp) #15
  %3 = icmp eq ptr %2, null
  br i1 %3, label %7, label %4

4:                                                ; preds = %1
  %5 = getelementptr inbounds nuw i8, ptr %0, i64 16
  %6 = load ptr, ptr %5, align 8, !tbaa !11
  tail call void @OPENSSL_LH_doall_arg_thunk(ptr noundef %6, ptr noundef nonnull @lh_CONF_VALUE_doall_SECTION_NAMES_thunk, ptr noundef nonnull @collect_section_name, ptr noundef nonnull %2) #15
  tail call void @OPENSSL_sk_sort(ptr noundef nonnull %2) #15
  br label %7

7:                                                ; preds = %1, %4
  ret ptr %2
}